target datalayout = "e-m:e-p270:32:32-p271:32:32-p272:64:64-i64:64-i128:128-f80:128-n8:16:32:64-S128"
target triple = "x86_64-pc-linux-gnu"

; Function Attrs: nounwind uwtable
define internal void @SDL_FillSurfaceRect1(ptr noundef %0, i32 noundef %1, i32 noundef %2, i32 noundef %3, i32 noundef %4) #0 {
  %6 = alloca ptr, align 8
  %7 = alloca i32, align 4
  %8 = alloca i32, align 4
  %9 = alloca i32, align 4
  %10 = alloca i32, align 4
  %11 = alloca i32, align 4
  %12 = alloca ptr, align 8
  store ptr %0, ptr %6, align 8
  store i32 %1, ptr %7, align 4
  store i32 %2, ptr %8, align 4
  store i32 %3, ptr %9, align 4
  store i32 %4, ptr %10, align 4
  call void @llvm.lifetime.start.p0(i64 4, ptr %11) #5
  call void @llvm.lifetime.start.p0(i64 8, ptr %12) #5
  store ptr null, ptr %12, align 8
  br label %13

13:                                               ; preds = %82, %5
  %14 = load i32, ptr %10, align 4
  %15 = add nsw i32 %14, -1
  store i32 %15, ptr %10, align 4
  %16 = icmp ne i32 %14, 0
  br i1 %16, label %17, label %87

17:                                               ; preds = %13
  %18 = load i32, ptr %9, align 4
  store i32 %18, ptr %11, align 4
  %19 = load ptr, ptr %6, align 8
  store ptr %19, ptr %12, align 8
  %20 = load i32, ptr %11, align 4
  %21 = icmp sgt i32 %20, 3
  br i1 %21, label %22, label %54

22:                                               ; preds = %17
  %23 = load ptr, ptr %12, align 8
  %24 = ptrtoint ptr %23 to i64
  %25 = and i64 %24, 3
  switch i64 %25, label %47 [
    i64 1, label %26
    i64 2, label %33
    i64 3, label %40
  ]

26:                                               ; preds = %22
  %27 = load i32, ptr %8, align 4
  %28 = trunc i32 %27 to i8
  %29 = load ptr, ptr %12, align 8
  %30 = getelementptr inbounds nuw i8, ptr %29, i32 1
  store ptr %30, ptr %12, align 8
  store i8 %28, ptr %29, align 1
  %31 = load i32, ptr %11, align 4
  %32 = add nsw i32 %31, -1
  store i32 %32, ptr %11, align 4
  br label %33

33:                                               ; preds = %22, %26
  %34 = load i32, ptr %8, align 4
  %35 = trunc i32 %34 to i8
  %36 = load ptr, ptr %12, align 8
  %37 = getelementptr inbounds nuw i8, ptr %36, i32 1
  store ptr %37, ptr %12, align 8
  store i8 %35, ptr %36, align 1
  %38 = load i32, ptr %11, align 4
  %39 = add nsw i32 %38, -1
  store i32 %39, ptr %11, align 4
  br label %40

40:                                               ; preds = %22, %33
  %41 = load i32, ptr %8, align 4
  %42 = trunc i32 %41 to i8
  %43 = load ptr, ptr %12, align 8
  %44 = getelementptr inbounds nuw i8, ptr %43, i32 1
  store ptr %44, ptr %12, align 8
  store i8 %42, ptr %43, align 1
  %45 = load i32, ptr %11, align 4
  %46 = add nsw i32 %45, -1
  store i32 %46, ptr %11, align 4
  br label %47

47:                                               ; preds = %40, %22
  %48 = load ptr, ptr %12, align 8
  %49 = load i32, ptr %8, align 4
  %50 = load i32, ptr %11, align 4
  %51 = ashr i32 %50, 2
  %52 = sext i32 %51 to i64
  %53 = call ptr @SDL_memset4_REAL(ptr noundef %48, i32 noundef %49, i64 noundef %52)
  br label %54

54:                                               ; preds = %47, %17
  %55 = load i32, ptr %11, align 4
  %56 = and i32 %55, 3
  %57 = icmp ne i32 %56, 0
  br i1 %57, label %58, label %82

58:                                               ; preds = %54
  %59 = load i32, ptr %11, align 4
  %60 = and i32 %59, -4
  %61 = load ptr, ptr %12, align 8
  %62 = sext i32 %60 to i64
  %63 = getelementptr inbounds i8, ptr %61, i64 %62
  store ptr %63, ptr %12, align 8
  %64 = load i32, ptr %11, align 4
  %65 = and i32 %64, 3
  switch i32 %65, label %81 [
    i32 3, label %66
    i32 2, label %71
    i32 1, label %76
  ]

66:                                               ; preds = %58
  %67 = load i32, ptr %8, align 4
  %68 = trunc i32 %67 to i8
  %69 = load ptr, ptr %12, align 8
  %70 = getelementptr inbounds nuw i8, ptr %69, i32 1
  store ptr %70, ptr %12, align 8
  store i8 %68, ptr %69, align 1
  br label %71

71:                                               ; preds = %58, %66
  %72 = load i32, ptr %8, align 4
  %73 = trunc i32 %72 to i8
  %74 = load ptr, ptr %12, align 8
  %75 = getelementptr inbounds nuw i8, ptr %74, i32 1
  store ptr %75, ptr %12, align 8
  store i8 %73, ptr %74, align 1
  br label %76

76:                                               ; preds = %58, %71
  %77 = load i32, ptr %8, align 4
  %78 = trunc i32 %77 to i8
  %79 = load ptr, ptr %12, align 8
  %80 = getelementptr inbounds nuw i8, ptr %79, i32 1
  store ptr %80, ptr %12, align 8
  store i8 %78, ptr %79, align 1
  br label %81

81:                                               ; preds = %76, %58
  br label %82

82:                                               ; preds = %81, %54
  %83 = load i32, ptr %7, align 4
  %84 = load ptr, ptr %6, align 8
  %85 = sext i32 %83 to i64
  %86 = getelementptr inbounds i8, ptr %84, i64 %85
  store ptr %86, ptr %6, align 8
  br label %13, !llvm.loop !5

87:                                               ; preds = %13
  call void @llvm.lifetime.end.p0(i64 8, ptr %12) #5
  call void @llvm.lifetime.end.p0(i64 4, ptr %11) #5
  ret void
}