; Function Attrs: nounwind uwtable
define internal void @SDL_FillSurfaceRect1(ptr noundef %0, i32 noundef %1, i32 noundef %2, i32 noundef %3, i32 noundef %4) unnamed_addr #0 {
  %6 = add nsw i32 %4, -1
  %.not39 = icmp eq i32 %4, 0
  br i1 %.not39, label %._crit_edge, label %.lr.ph

.lr.ph:                                           ; preds = %5
  %7 = icmp sgt i32 %3, 3
  %8 = trunc i32 %2 to i8
  %9 = add nsw i32 %3, -1
  %10 = sext i32 %1 to i64
  br i1 %7, label %.lr.ph.split.us.preheader, label %.lr.ph.split

.lr.ph.split.us.preheader:                        ; preds = %.lr.ph
  %.pre = add nsw i32 %3, -2
  br label %.lr.ph.split.us

.lr.ph.split.us:                                  ; preds = %.lr.ph.split.us.preheader, %34
  %11 = phi i32 [ %36, %34 ], [ %6, %.lr.ph.split.us.preheader ]
  %.03440.us = phi ptr [ %35, %34 ], [ %0, %.lr.ph.split.us.preheader ]
  %12 = ptrtoint ptr %.03440.us to i64
  %13 = and i64 %12, 3
  switch i64 %13, label %.lr.ph.split.us.unreachabledefault [
    i64 1, label %14
    i64 2, label %16
    i64 3, label %18
    i64 0, label %20
  ]

14:                                               ; preds = %.lr.ph.split.us
  %15 = getelementptr inbounds nuw i8, ptr %.03440.us, i64 1
  store i8 %8, ptr %.03440.us, align 1
  br label %16

16:                                               ; preds = %14, %.lr.ph.split.us
  %.pre-phi = phi i32 [ %.pre, %14 ], [ %9, %.lr.ph.split.us ]
  %.2.us = phi ptr [ %15, %14 ], [ %.03440.us, %.lr.ph.split.us ]
  %17 = getelementptr inbounds nuw i8, ptr %.2.us, i64 1
  store i8 %8, ptr %.2.us, align 1
  %.pre59 = add nsw i32 %.pre-phi, -1
  br label %18

18:                                               ; preds = %16, %.lr.ph.split.us
  %.pre-phi60 = phi i32 [ %.pre59, %16 ], [ %9, %.lr.ph.split.us ]
  %.3.us = phi ptr [ %17, %16 ], [ %.03440.us, %.lr.ph.split.us ]
  %19 = getelementptr inbounds nuw i8, ptr %.3.us, i64 1
  store i8 %8, ptr %.3.us, align 1
  br label %20

20:                                               ; preds = %18, %.lr.ph.split.us
  %.130.us = phi i32 [ %3, %.lr.ph.split.us ], [ %.pre-phi60, %18 ]
  %.1.us = phi ptr [ %.03440.us, %.lr.ph.split.us ], [ %19, %18 ]
  %21 = lshr i32 %.130.us, 2
  %22 = zext nneg i32 %21 to i64
  %23 = tail call ptr @SDL_memset4_REAL(ptr noundef %.1.us, i32 noundef %2, i64 noundef %22) #5
  %24 = and i32 %.130.us, 3
  %.not38.us = icmp eq i32 %24, 0
  br i1 %.not38.us, label %34, label %25

25:                                               ; preds = %20
  %26 = and i32 %.130.us, -4
  %27 = sext i32 %26 to i64
  %28 = getelementptr inbounds i8, ptr %.1.us, i64 %27
  switch i32 %24, label %.unreachabledefault [
    i32 3, label %29
    i32 2, label %31
    i32 1, label %33
  ]

29:                                               ; preds = %25
  %30 = getelementptr inbounds nuw i8, ptr %28, i64 1
  store i8 %8, ptr %28, align 1
  br label %31

31:                                               ; preds = %25, %29
  %.4.us = phi ptr [ %28, %25 ], [ %30, %29 ]
  %32 = getelementptr inbounds nuw i8, ptr %.4.us, i64 1
  store i8 %8, ptr %.4.us, align 1
  br label %33

33:                                               ; preds = %25, %31
  %.5.us = phi ptr [ %28, %25 ], [ %32, %31 ]
  store i8 %8, ptr %.5.us, align 1
  br label %34

34:                                               ; preds = %33, %20
  %35 = getelementptr inbounds i8, ptr %.03440.us, i64 %10
  %36 = add nsw i32 %11, -1
  %.not.us = icmp eq i32 %11, 0
  br i1 %.not.us, label %._crit_edge, label %.lr.ph.split.us, !llvm.loop !6

.lr.ph.split.us.unreachabledefault:               ; preds = %.lr.ph.split.us
  unreachable

default.unreachable61:                            ; preds = %.lr.ph.split
  unreachable

.unreachabledefault:                              ; preds = %25
  unreachable

.lr.ph.split:                                     ; preds = %.lr.ph
  %37 = and i32 %3, 3
  %38 = and i32 %3, -4
  %39 = sext i32 %38 to i64
  switch i32 %37, label %default.unreachable61 [
    i32 0, label %._crit_edge
    i32 3, label %.lr.ph.split.split.split.split.us
    i32 2, label %.lr.ph.split.split.split.split.us50
    i32 1, label %.lr.ph.split.split.split.split
  ]

.lr.ph.split.split.split.split.us:                ; preds = %.lr.ph.split, %.lr.ph.split.split.split.split.us
  %40 = phi i32 [ %45, %.lr.ph.split.split.split.split.us ], [ %6, %.lr.ph.split ]
  %.03440.us46 = phi ptr [ %44, %.lr.ph.split.split.split.split.us ], [ %0, %.lr.ph.split ]
  %41 = getelementptr inbounds i8, ptr %.03440.us46, i64 %39
  %42 = getelementptr inbounds nuw i8, ptr %41, i64 1
  store i8 %8, ptr %41, align 1
  %43 = getelementptr inbounds nuw i8, ptr %41, i64 2
  store i8 %8, ptr %42, align 1
  store i8 %8, ptr %43, align 1
  %44 = getelementptr inbounds i8, ptr %.03440.us46, i64 %10
  %45 = add nsw i32 %40, -1
  %.not.us49 = icmp eq i32 %40, 0
  br i1 %.not.us49, label %._crit_edge, label %.lr.ph.split.split.split.split.us, !llvm.loop !6

.lr.ph.split.split.split.split.us50:              ; preds = %.lr.ph.split, %.lr.ph.split.split.split.split.us50
  %46 = phi i32 [ %50, %.lr.ph.split.split.split.split.us50 ], [ %6, %.lr.ph.split ]
  %.03440.us51 = phi ptr [ %49, %.lr.ph.split.split.split.split.us50 ], [ %0, %.lr.ph.split ]
  %47 = getelementptr inbounds i8, ptr %.03440.us51, i64 %39
  %48 = getelementptr inbounds nuw i8, ptr %47, i64 1
  store i8 %8, ptr %47, align 1
  store i8 %8, ptr %48, align 1
  %49 = getelementptr inbounds i8, ptr %.03440.us51, i64 %10
  %50 = add nsw i32 %46, -1
  %.not.us54 = icmp eq i32 %46, 0
  br i1 %.not.us54, label %._crit_edge, label %.lr.ph.split.split.split.split.us50, !llvm.loop !6

.lr.ph.split.split.split.split:                   ; preds = %.lr.ph.split, %.lr.ph.split.split.split.split
  %51 = phi i32 [ %54, %.lr.ph.split.split.split.split ], [ %6, %.lr.ph.split ]
  %.03440 = phi ptr [ %53, %.lr.ph.split.split.split.split ], [ %0, %.lr.ph.split ]
  %52 = getelementptr inbounds i8, ptr %.03440, i64 %39
  store i8 %8, ptr %52, align 1
  %53 = getelementptr inbounds i8, ptr %.03440, i64 %10
  %54 = add nsw i32 %51, -1
  %.not = icmp eq i32 %51, 0
  br i1 %.not, label %._crit_edge, label %.lr.ph.split.split.split.split, !llvm.loop !6

._crit_edge:                                      ; preds = %.lr.ph.split.split.split.split, %.lr.ph.split.split.split.split.us50, %.lr.ph.split.split.split.split.us, %34, %.lr.ph.split, %5
  ret void
}